; Function Attrs: nofree nounwind memory(read, argmem: readwrite, inaccessiblemem: none) uwtable
define noundef ptr @H5G__component(ptr noundef readonly %0, ptr noundef writeonly %1) local_unnamed_addr #0 {
  br label %3

3:                                                ; preds = %3, %2
  %.0 = phi ptr [ %0, %2 ], [ %6, %3 ]
  %4 = load i8, ptr %.0, align 1
  %5 = icmp eq i8 %4, 47
  %6 = getelementptr inbounds i8, ptr %.0, i64 1
  br i1 %5, label %3, label %7

7:                                                ; preds = %3
  %.not = icmp eq ptr %1, null
  br i1 %.not, label %10, label %8

8:                                                ; preds = %7
  %9 = tail call i64 @strcspn(ptr noundef nonnull %.0, ptr noundef nonnull @.str) #9
  store i64 %9, ptr %1, align 8
  br label %10

10:                                               ; preds = %8, %7
  ret ptr %.0
}